target datalayout = "e-m:e-p270:32:32-p271:32:32-p272:64:64-i64:64-i128:128-f80:128-n8:16:32:64-S128"
target triple = "x86_64-pc-linux-gnu"

%struct.expert_field = type { i32, i32 }
%struct.MessageHeader = type { [4 x i8], %struct.Version, i8, i8, i32, i32, i32, ptr }
%struct.Version = type { i8, i8 }

@hf_Tango_Device_command_inout_command = internal global i32 0, align 4
@ei_tango_unknown_giop_msg = internal global %struct.expert_field zeroinitializer, align 4
@ei_tango_unknown_exception = internal global %struct.expert_field zeroinitializer, align 4
@boundary = internal global i32 12, align 4
@.str.771 = private unnamed_addr constant [21 x i8] c"Unknown exception %d\00", align 1
@.str.772 = private unnamed_addr constant [24 x i8] c"Unknown GIOP message %d\00", align 1

; Function Attrs: null_pointer_is_valid sspstrong uwtable
define internal void @decode_Tango_Device_command_inout(ptr noundef %0, ptr noundef %1, ptr noundef %2, ptr noundef %3, ptr noundef %4, ptr noundef %5, ptr noundef %6, i1 noundef zeroext %7) #0 {
  %9 = alloca ptr, align 8
  %10 = alloca ptr, align 8
  %11 = alloca ptr, align 8
  %12 = alloca ptr, align 8
  %13 = alloca ptr, align 8
  %14 = alloca ptr, align 8
  %15 = alloca ptr, align 8
  %16 = alloca i8, align 1
  store ptr %0, ptr %9, align 8
  store ptr %1, ptr %10, align 8
  store ptr %2, ptr %11, align 8
  store ptr %3, ptr %12, align 8
  store ptr %4, ptr %13, align 8
  store ptr %5, ptr %14, align 8
  store ptr %6, ptr %15, align 8
  %17 = zext i1 %7 to i8
  store i8 %17, ptr %16, align 1
  %18 = load ptr, ptr %14, align 8
  %19 = getelementptr inbounds nuw %struct.MessageHeader, ptr %18, i32 0, i32 3
  %20 = load i8, ptr %19, align 1
  %21 = zext i8 %20 to i32
  switch i32 %21, label %61 [
    i32 0, label %22
    i32 1, label %39
  ]

22:                                               ; preds = %8
  %23 = load ptr, ptr %11, align 8
  %24 = load ptr, ptr %9, align 8
  %25 = load ptr, ptr %13, align 8
  %26 = load i8, ptr %16, align 1, !range !6, !noundef !7
  %27 = trunc i8 %26 to i1
  %28 = load i32, ptr @boundary, align 4
  %29 = load i32, ptr @hf_Tango_Device_command_inout_command, align 4
  call void @giop_add_CDR_string(ptr noundef %23, ptr noundef %24, ptr noundef %25, i1 noundef zeroext %27, i32 noundef %28, i32 noundef %29)
  %30 = load ptr, ptr %9, align 8
  %31 = load ptr, ptr %10, align 8
  %32 = load ptr, ptr %11, align 8
  %33 = load ptr, ptr %12, align 8
  %34 = load ptr, ptr %13, align 8
  %35 = load i8, ptr %16, align 1, !range !6, !noundef !7
  %36 = trunc i8 %35 to i1
  %37 = load i32, ptr @boundary, align 4
  %38 = load ptr, ptr %14, align 8
  call void @get_CDR_any(ptr noundef %30, ptr noundef %31, ptr noundef %32, ptr noundef %33, ptr noundef %34, i1 noundef zeroext %36, i32 noundef %37, ptr noundef %38)
  br label %69

39:                                               ; preds = %8
  %40 = load ptr, ptr %14, align 8
  %41 = getelementptr inbounds nuw %struct.MessageHeader, ptr %40, i32 0, i32 6
  %42 = load i32, ptr %41, align 8
  switch i32 %42, label %53 [
    i32 0, label %43
    i32 1, label %60
  ]

43:                                               ; preds = %39
  %44 = load ptr, ptr %9, align 8
  %45 = load ptr, ptr %10, align 8
  %46 = load ptr, ptr %11, align 8
  %47 = load ptr, ptr %12, align 8
  %48 = load ptr, ptr %13, align 8
  %49 = load i8, ptr %16, align 1, !range !6, !noundef !7
  %50 = trunc i8 %49 to i1
  %51 = load i32, ptr @boundary, align 4
  %52 = load ptr, ptr %14, align 8
  call void @get_CDR_any(ptr noundef %44, ptr noundef %45, ptr noundef %46, ptr noundef %47, ptr noundef %48, i1 noundef zeroext %50, i32 noundef %51, ptr noundef %52)
  br label %60

53:                                               ; preds = %39
  %54 = load ptr, ptr %10, align 8
  %55 = load ptr, ptr %12, align 8
  %56 = load ptr, ptr %14, align 8
  %57 = getelementptr inbounds nuw %struct.MessageHeader, ptr %56, i32 0, i32 6
  %58 = load i32, ptr %57, align 8
  %59 = call ptr (ptr, ptr, ptr, ptr, ...) @expert_add_info_format(ptr noundef %54, ptr noundef %55, ptr noundef @ei_tango_unknown_exception, ptr noundef @.str.771, i32 noundef %58)
  br label %60

60:                                               ; preds = %53, %39, %43
  br label %69

61:                                               ; preds = %8
  %62 = load ptr, ptr %10, align 8
  %63 = load ptr, ptr %12, align 8
  %64 = load ptr, ptr %14, align 8
  %65 = getelementptr inbounds nuw %struct.MessageHeader, ptr %64, i32 0, i32 3
  %66 = load i8, ptr %65, align 1
  %67 = zext i8 %66 to i32
  %68 = call ptr (ptr, ptr, ptr, ptr, ...) @expert_add_info_format(ptr noundef %62, ptr noundef %63, ptr noundef @ei_tango_unknown_giop_msg, ptr noundef @.str.772, i32 noundef %67)
  br label %69

69:                                               ; preds = %61, %60, %22
  ret void
}